; ModuleID = '4/1874.c'
source_filename = "4/1874.c"
target datalayout = "e-m:e-p270:32:32-p271:32:32-p272:64:64-i64:64-f80:128-n8:16:32:64-S128"
target triple = "x86_64-pc-linux-gnu"

@.str = private unnamed_addr constant [5 x i8] c"%d%d\00", align 1
@.str.1 = private unnamed_addr constant [3 x i8] c"%d\00", align 1
@.str.2 = private unnamed_addr constant [4 x i8] c"%d\0A\00", align 1

; Function Attrs: noinline nounwind uwtable
define dso_local i32 @main() #0 {
  %1 = alloca i32, align 4
  %2 = alloca i32, align 4
  %3 = alloca i32, align 4
  %4 = alloca i32, align 4
  %5 = alloca [100 x [100 x i32]], align 16
  %6 = alloca i32, align 4
  %7 = alloca i32, align 4
  store i32 0, i32* %1, align 4
  %8 = call i32 (i8*, ...) @__isoc99_scanf(i8* getelementptr inbounds ([5 x i8], [5 x i8]* @.str, i64 0, i64 0), i32* %2, i32* %3)
  store i32 0, i32* %6, align 4
  br label %9

9:                                                ; preds = %30, %0
  %10 = load i32, i32* %6, align 4
  %11 = load i32, i32* %2, align 4
  %12 = icmp slt i32 %10, %11
  br i1 %12, label %13, label %33

13:                                               ; preds = %9
  store i32 0, i32* %7, align 4
  br label %14

14:                                               ; preds = %26, %13
  %15 = load i32, i32* %7, align 4
  %16 = load i32, i32* %3, align 4
  %17 = icmp slt i32 %15, %16
  br i1 %17, label %18, label %29

18:                                               ; preds = %14
  %19 = load i32, i32* %6, align 4
  %20 = sext i32 %19 to i64
  %21 = getelementptr inbounds [100 x [100 x i32]], [100 x [100 x i32]]* %5, i64 0, i64 %20
  %22 = load i32, i32* %7, align 4
  %23 = sext i32 %22 to i64
  %24 = getelementptr inbounds [100 x i32], [100 x i32]* %21, i64 0, i64 %23
  %25 = call i32 (i8*, ...) @__isoc99_scanf(i8* getelementptr inbounds ([3 x i8], [3 x i8]* @.str.1, i64 0, i64 0), i32* %24)
  br label %26

26:                                               ; preds = %18
  %27 = load i32, i32* %7, align 4
  %28 = add nsw i32 %27, 1
  store i32 %28, i32* %7, align 4
  br label %14

29:                                               ; preds = %14
  br label %30

30:                                               ; preds = %29
  %31 = load i32, i32* %6, align 4
  %32 = add nsw i32 %31, 1
  store i32 %32, i32* %6, align 4
  br label %9

33:                                               ; preds = %9
  %34 = load i32, i32* %2, align 4
  %35 = load i32, i32* %3, align 4
  %36 = icmp eq i32 %34, %35
  br i1 %36, label %37, label %112

37:                                               ; preds = %33
  %38 = load i32, i32* %2, align 4
  %39 = icmp eq i32 %38, 1
  br i1 %39, label %40, label %51

40:                                               ; preds = %37
  %41 = load i32, i32* %2, align 4
  %42 = sub nsw i32 %41, 1
  %43 = sext i32 %42 to i64
  %44 = getelementptr inbounds [100 x [100 x i32]], [100 x [100 x i32]]* %5, i64 0, i64 %43
  %45 = load i32, i32* %3, align 4
  %46 = sub nsw i32 %45, 1
  %47 = sext i32 %46 to i64
  %48 = getelementptr inbounds [100 x i32], [100 x i32]* %44, i64 0, i64 %47
  %49 = load i32, i32* %48, align 4
  %50 = call i32 (i8*, ...) @printf(i8* getelementptr inbounds ([4 x i8], [4 x i8]* @.str.2, i64 0, i64 0), i32 %49)
  br label %111

51:                                               ; preds = %37
  store i32 0, i32* %7, align 4
  br label %52

52:                                               ; preds = %76, %51
  %53 = load i32, i32* %7, align 4
  %54 = load i32, i32* %3, align 4
  %55 = icmp slt i32 %53, %54
  br i1 %55, label %56, label %79

56:                                               ; preds = %52
  %57 = load i32, i32* %7, align 4
  store i32 %57, i32* %4, align 4
  store i32 0, i32* %6, align 4
  br label %58

58:                                               ; preds = %71, %56
  %59 = load i32, i32* %6, align 4
  %60 = sext i32 %59 to i64
  %61 = getelementptr inbounds [100 x [100 x i32]], [100 x [100 x i32]]* %5, i64 0, i64 %60
  %62 = load i32, i32* %7, align 4
  %63 = sext i32 %62 to i64
  %64 = getelementptr inbounds [100 x i32], [100 x i32]* %61, i64 0, i64 %63
  %65 = load i32, i32* %64, align 4
  %66 = call i32 (i8*, ...) @printf(i8* getelementptr inbounds ([4 x i8], [4 x i8]* @.str.2, i64 0, i64 0), i32 %65)
  %67 = load i32, i32* %6, align 4
  %68 = add nsw i32 %67, 1
  store i32 %68, i32* %6, align 4
  %69 = load i32, i32* %7, align 4
  %70 = add nsw i32 %69, -1
  store i32 %70, i32* %7, align 4
  br label %71

71:                                               ; preds = %58
  %72 = load i32, i32* %7, align 4
  %73 = icmp sgt i32 %72, -1
  br i1 %73, label %58, label %74

74:                                               ; preds = %71
  %75 = load i32, i32* %4, align 4
  store i32 %75, i32* %7, align 4
  br label %76

76:                                               ; preds = %74
  %77 = load i32, i32* %7, align 4
  %78 = add nsw i32 %77, 1
  store i32 %78, i32* %7, align 4
  br label %52

79:                                               ; preds = %52
  store i32 1, i32* %6, align 4
  br label %80

80:                                               ; preds = %107, %79
  %81 = load i32, i32* %6, align 4
  %82 = load i32, i32* %2, align 4
  %83 = icmp slt i32 %81, %82
  br i1 %83, label %84, label %110

84:                                               ; preds = %80
  %85 = load i32, i32* %6, align 4
  store i32 %85, i32* %4, align 4
  %86 = load i32, i32* %3, align 4
  %87 = sub nsw i32 %86, 1
  store i32 %87, i32* %7, align 4
  br label %88

88:                                               ; preds = %101, %84
  %89 = load i32, i32* %6, align 4
  %90 = sext i32 %89 to i64
  %91 = getelementptr inbounds [100 x [100 x i32]], [100 x [100 x i32]]* %5, i64 0, i64 %90
  %92 = load i32, i32* %7, align 4
  %93 = sext i32 %92 to i64
  %94 = getelementptr inbounds [100 x i32], [100 x i32]* %91, i64 0, i64 %93
  %95 = load i32, i32* %94, align 4
  %96 = call i32 (i8*, ...) @printf(i8* getelementptr inbounds ([4 x i8], [4 x i8]* @.str.2, i64 0, i64 0), i32 %95)
  %97 = load i32, i32* %6, align 4
  %98 = add nsw i32 %97, 1
  store i32 %98, i32* %6, align 4
  %99 = load i32, i32* %7, align 4
  %100 = add nsw i32 %99, -1
  store i32 %100, i32* %7, align 4
  br label %101

101:                                              ; preds = %88
  %102 = load i32, i32* %6, align 4
  %103 = load i32, i32* %2, align 4
  %104 = icmp slt i32 %102, %103
  br i1 %104, label %88, label %105

105:                                              ; preds = %101
  %106 = load i32, i32* %4, align 4
  store i32 %106, i32* %6, align 4
  br label %107

107:                                              ; preds = %105
  %108 = load i32, i32* %6, align 4
  %109 = add nsw i32 %108, 1
  store i32 %109, i32* %6, align 4
  br label %80

110:                                              ; preds = %80
  br label %111

111:                                              ; preds = %110, %40
  br label %184

112:                                              ; preds = %33
  store i32 0, i32* %7, align 4
  br label %113

113:                                              ; preds = %144, %112
  %114 = load i32, i32* %7, align 4
  %115 = load i32, i32* %3, align 4
  %116 = sub nsw i32 %115, 1
  %117 = icmp slt i32 %114, %116
  br i1 %117, label %118, label %147

118:                                              ; preds = %113
  %119 = load i32, i32* %7, align 4
  store i32 %119, i32* %4, align 4
  store i32 0, i32* %6, align 4
  br label %120

120:                                              ; preds = %140, %118
  %121 = load i32, i32* %6, align 4
  %122 = sext i32 %121 to i64
  %123 = getelementptr inbounds [100 x [100 x i32]], [100 x [100 x i32]]* %5, i64 0, i64 %122
  %124 = load i32, i32* %7, align 4
  %125 = sext i32 %124 to i64
  %126 = getelementptr inbounds [100 x i32], [100 x i32]* %123, i64 0, i64 %125
  %127 = load i32, i32* %126, align 4
  %128 = call i32 (i8*, ...) @printf(i8* getelementptr inbounds ([4 x i8], [4 x i8]* @.str.2, i64 0, i64 0), i32 %127)
  %129 = load i32, i32* %6, align 4
  %130 = add nsw i32 %129, 1
  store i32 %130, i32* %6, align 4
  %131 = load i32, i32* %7, align 4
  %132 = add nsw i32 %131, -1
  store i32 %132, i32* %7, align 4
  br label %133

133:                                              ; preds = %120
  %134 = load i32, i32* %7, align 4
  %135 = icmp sgt i32 %134, -1
  br i1 %135, label %136, label %140

136:                                              ; preds = %133
  %137 = load i32, i32* %6, align 4
  %138 = load i32, i32* %2, align 4
  %139 = icmp slt i32 %137, %138
  br label %140

140:                                              ; preds = %136, %133
  %141 = phi i1 [ false, %133 ], [ %139, %136 ]
  br i1 %141, label %120, label %142

142:                                              ; preds = %140
  %143 = load i32, i32* %4, align 4
  store i32 %143, i32* %7, align 4
  br label %144

144:                                              ; preds = %142
  %145 = load i32, i32* %7, align 4
  %146 = add nsw i32 %145, 1
  store i32 %146, i32* %7, align 4
  br label %113

147:                                              ; preds = %113
  store i32 0, i32* %6, align 4
  br label %148

148:                                              ; preds = %180, %147
  %149 = load i32, i32* %6, align 4
  %150 = load i32, i32* %2, align 4
  %151 = icmp slt i32 %149, %150
  br i1 %151, label %152, label %183

152:                                              ; preds = %148
  %153 = load i32, i32* %6, align 4
  store i32 %153, i32* %4, align 4
  %154 = load i32, i32* %3, align 4
  %155 = sub nsw i32 %154, 1
  store i32 %155, i32* %7, align 4
  br label %156

156:                                              ; preds = %176, %152
  %157 = load i32, i32* %6, align 4
  %158 = sext i32 %157 to i64
  %159 = getelementptr inbounds [100 x [100 x i32]], [100 x [100 x i32]]* %5, i64 0, i64 %158
  %160 = load i32, i32* %7, align 4
  %161 = sext i32 %160 to i64
  %162 = getelementptr inbounds [100 x i32], [100 x i32]* %159, i64 0, i64 %161
  %163 = load i32, i32* %162, align 4
  %164 = call i32 (i8*, ...) @printf(i8* getelementptr inbounds ([4 x i8], [4 x i8]* @.str.2, i64 0, i64 0), i32 %163)
  %165 = load i32, i32* %6, align 4
  %166 = add nsw i32 %165, 1
  store i32 %166, i32* %6, align 4
  %167 = load i32, i32* %7, align 4
  %168 = add nsw i32 %167, -1
  store i32 %168, i32* %7, align 4
  br label %169

169:                                              ; preds = %156
  %170 = load i32, i32* %6, align 4
  %171 = load i32, i32* %2, align 4
  %172 = icmp slt i32 %170, %171
  br i1 %172, label %173, label %176

173:                                              ; preds = %169
  %174 = load i32, i32* %7, align 4
  %175 = icmp sgt i32 %174, -1
  br label %176

176:                                              ; preds = %173, %169
  %177 = phi i1 [ false, %169 ], [ %175, %173 ]
  br i1 %177, label %156, label %178

178:                                              ; preds = %176
  %179 = load i32, i32* %4, align 4
  store i32 %179, i32* %6, align 4
  br label %180

180:                                              ; preds = %178
  %181 = load i32, i32* %6, align 4
  %182 = add nsw i32 %181, 1
  store i32 %182, i32* %6, align 4
  br label %148

183:                                              ; preds = %148
  br label %184

184:                                              ; preds = %183, %111
  ret i32 0
}

declare dso_local i32 @__isoc99_scanf(i8*, ...) #1

declare dso_local i32 @printf(i8*, ...) #1


!llvm.module.flags = !{!0}
!llvm.ident = !{!1}

!0 = !{i32 1, !"wchar_size", i32 4}
!1 = !{!"clang version 10.0.0-4ubuntu1 "}
